target datalayout = "e-m:e-p270:32:32-p271:32:32-p272:64:64-i64:64-i128:128-f80:128-n8:16:32:64-S128"
target triple = "x86_64-pc-linux-gnu"

%"class.icu_77::MessagePattern" = type <{ %"class.icu_77::UObject", i32, [4 x i8], %"class.icu_77::UnicodeString", ptr, ptr, i32, [4 x i8], ptr, ptr, i32, i8, i8, i8, i8 }>
%"class.icu_77::UObject" = type { ptr }
%"class.icu_77::UnicodeString" = type { %"class.icu_77::Replaceable", %"union.icu_77::UnicodeString::StackBufferOrFields" }
%"class.icu_77::Replaceable" = type { %"class.icu_77::UObject" }
%"union.icu_77::UnicodeString::StackBufferOrFields" = type { %struct.anon.0, [32 x i8] }
%struct.anon.0 = type { i16, i32, i32, ptr }
%struct.anon = type { i16, [27 x i16] }
%"class.icu_77::MessagePatternList" = type { %"class.icu_77::MaybeStackArray" }
%"class.icu_77::MaybeStackArray" = type { ptr, i32, i8, [32 x %"class.icu_77::MessagePattern::Part"] }
%"class.icu_77::MessagePattern::Part" = type { i32, i32, i16, i16, i32 }

@_ZTVN6icu_7714MessagePatternE = unnamed_addr constant { [5 x ptr] } { [5 x ptr] [ptr null, ptr @_ZTIN6icu_7714MessagePatternE, ptr @_ZN6icu_7714MessagePatternD1Ev, ptr @_ZN6icu_7714MessagePatternD0Ev, ptr @_ZNK6icu_777UObject17getDynamicClassIDEv] }, align 8
@_ZTVN6icu_777UObjectE = available_externally unnamed_addr constant { [5 x ptr] } { [5 x ptr] [ptr null, ptr @_ZTIN6icu_777UObjectE, ptr @_ZN6icu_777UObjectD1Ev, ptr @_ZN6icu_777UObjectD0Ev, ptr @_ZNK6icu_777UObject17getDynamicClassIDEv] }, align 8

; Function Attrs: mustprogress nounwind uwtable
define linkonce_odr void @_ZN6icu_7714MessagePattern4PartC2Ev(ptr noundef nonnull align 4 dereferenceable(16) %0) unnamed_addr #5 comdat align 2 {
  %2 = alloca ptr, align 8
  store ptr %0, ptr %2, align 8, !tbaa !70
  ret void
}

; Function Attrs: mustprogress uwtable
define linkonce_odr void @_ZN6icu_7715MaybeStackArrayINS_14MessagePattern4PartELi32EEC2Ev(ptr noundef nonnull align 8 dereferenceable(528) %0) unnamed_addr #0 comdat align 2 {
  %2 = alloca ptr, align 8
  store ptr %0, ptr %2, align 8, !tbaa !42
  %3 = load ptr, ptr %2, align 8
  %4 = getelementptr inbounds nuw %"class.icu_77::MaybeStackArray", ptr %3, i32 0, i32 0
  %5 = getelementptr inbounds nuw %"class.icu_77::MaybeStackArray", ptr %3, i32 0, i32 3
  %6 = getelementptr inbounds [32 x %"class.icu_77::MessagePattern::Part"], ptr %5, i64 0, i64 0
  store ptr %6, ptr %4, align 8, !tbaa !44
  %7 = getelementptr inbounds nuw %"class.icu_77::MaybeStackArray", ptr %3, i32 0, i32 1
  store i32 32, ptr %7, align 8, !tbaa !103
  %8 = getelementptr inbounds nuw %"class.icu_77::MaybeStackArray", ptr %3, i32 0, i32 2
  store i8 0, ptr %8, align 4, !tbaa !104
  %9 = getelementptr inbounds nuw %"class.icu_77::MaybeStackArray", ptr %3, i32 0, i32 3
  %10 = getelementptr inbounds [32 x %"class.icu_77::MessagePattern::Part"], ptr %9, i32 0, i32 0
  %11 = getelementptr inbounds %"class.icu_77::MessagePattern::Part", ptr %10, i64 32
  br label %12

12:                                               ; preds = %12, %1
  %13 = phi ptr [ %10, %1 ], [ %14, %12 ]
  call void @_ZN6icu_7714MessagePattern4PartC2Ev(ptr noundef nonnull align 4 dereferenceable(16) %13)
  %14 = getelementptr inbounds %"class.icu_77::MessagePattern::Part", ptr %13, i64 1
  %15 = icmp eq ptr %14, %11
  br i1 %15, label %16, label %12

16:                                               ; preds = %12
  ret void
}

; Function Attrs: mustprogress uwtable
define linkonce_odr void @_ZN6icu_7718MessagePatternListINS_14MessagePattern4PartELi32EEC2Ev(ptr noundef nonnull align 8 dereferenceable(528) %0) unnamed_addr #0 comdat align 2 {
  %2 = alloca ptr, align 8
  store ptr %0, ptr %2, align 8, !tbaa !46
  %3 = load ptr, ptr %2, align 8
  %4 = getelementptr inbounds nuw %"class.icu_77::MessagePatternList", ptr %3, i32 0, i32 0
  call void @_ZN6icu_7715MaybeStackArrayINS_14MessagePattern4PartELi32EEC2Ev(ptr noundef nonnull align 8 dereferenceable(528) %4)
  ret void
}

; Function Attrs: mustprogress nounwind uwtable
define linkonce_odr noundef ptr @_ZNK6icu_7715MaybeStackArrayINS_14MessagePattern4PartELi32EE8getAliasEv(ptr noundef nonnull align 8 dereferenceable(528) %0) #5 comdat align 2 {
  %2 = alloca ptr, align 8
  store ptr %0, ptr %2, align 8, !tbaa !42
  %3 = load ptr, ptr %2, align 8
  %4 = getelementptr inbounds nuw %"class.icu_77::MaybeStackArray", ptr %3, i32 0, i32 0
  %5 = load ptr, ptr %4, align 8, !tbaa !44
  ret ptr %5
}

; Function Attrs: inlinehint mustprogress uwtable
define linkonce_odr void @_ZN6icu_7723MessagePatternPartsListC2Ev(ptr noundef nonnull align 8 dereferenceable(528) %0) unnamed_addr #2 comdat align 2 {
  %2 = alloca ptr, align 8
  store ptr %0, ptr %2, align 8, !tbaa !41
  %3 = load ptr, ptr %2, align 8
  call void @_ZN6icu_7718MessagePatternListINS_14MessagePattern4PartELi32EEC2Ev(ptr noundef nonnull align 8 dereferenceable(528) %3)
  ret void
}

; Function Attrs: inlinehint mustprogress nounwind uwtable
define internal noundef signext i8 @_ZL9U_FAILURE10UErrorCode(i32 noundef %0) #1 {
  %2 = alloca i32, align 4
  store i32 %0, ptr %2, align 4, !tbaa !36
  %3 = load i32, ptr %2, align 4, !tbaa !36
  %4 = icmp sgt i32 %3, 0
  %5 = zext i1 %4 to i8
  ret i8 %5
}

; Function Attrs: inlinehint mustprogress nounwind uwtable
define linkonce_odr void @_ZN6icu_7711ReplaceableC2Ev(ptr noundef nonnull align 8 dereferenceable(8) %0) unnamed_addr #1 comdat align 2 {
  %2 = alloca ptr, align 8
  store ptr %0, ptr %2, align 8, !tbaa !101
  %3 = load ptr, ptr %2, align 8
  call void @_ZN6icu_777UObjectC2Ev(ptr noundef nonnull align 8 dereferenceable(8) %3) #12
  store ptr getelementptr inbounds inrange(-16, 88) ({ [13 x ptr] }, ptr @_ZTVN6icu_7711ReplaceableE, i32 0, i32 0, i32 2), ptr %3, align 8, !tbaa !9
  ret void
}

; Function Attrs: mustprogress uwtable
define noundef signext i8 @_ZN6icu_7714MessagePattern4initER10UErrorCode(ptr noundef nonnull align 8 dereferenceable(127) %0, ptr noundef nonnull align 4 dereferenceable(4) %1) #0 align 2 personality ptr @__gxx_personality_v0 {
  %3 = alloca i8, align 1
  %4 = alloca ptr, align 8
  %5 = alloca ptr, align 8
  %6 = alloca ptr, align 8
  %7 = alloca i1, align 1
  %8 = alloca ptr, align 8
  %9 = alloca i32, align 4
  store ptr %0, ptr %4, align 8, !tbaa !3
  store ptr %1, ptr %5, align 8, !tbaa !8
  %10 = load ptr, ptr %4, align 8
  %11 = load ptr, ptr %5, align 8, !tbaa !8
  %12 = load i32, ptr %11, align 4, !tbaa !36
  %13 = call noundef signext i8 @_ZL9U_FAILURE10UErrorCode(i32 noundef %12)
  %14 = icmp ne i8 %13, 0
  br i1 %14, label %15, label %16

15:                                               ; preds = %2
  store i8 0, ptr %3, align 1
  br label %43

16:                                               ; preds = %2
  %17 = call noundef ptr @_ZN6icu_777UMemorynwEm(i64 noundef 528) #12
  %18 = icmp eq ptr %17, null
  store i1 false, ptr %7, align 1
  br i1 %18, label %21, label %19

19:                                               ; preds = %16
  store ptr %17, ptr %6, align 8
  store i1 true, ptr %7, align 1
  call void @llvm.memset.p0.i64(ptr align 8 %17, i8 0, i64 528, i1 false)
  invoke void @_ZN6icu_7723MessagePatternPartsListC2Ev(ptr noundef nonnull align 8 dereferenceable(528) %17)
          to label %20 unwind label %29

20:                                               ; preds = %19
  br label %21

21:                                               ; preds = %20, %16
  %22 = phi ptr [ %17, %20 ], [ null, %16 ]
  %23 = getelementptr inbounds nuw %"class.icu_77::MessagePattern", ptr %10, i32 0, i32 4
  store ptr %22, ptr %23, align 8, !tbaa !22
  %24 = getelementptr inbounds nuw %"class.icu_77::MessagePattern", ptr %10, i32 0, i32 4
  %25 = load ptr, ptr %24, align 8, !tbaa !22
  %26 = icmp eq ptr %25, null
  br i1 %26, label %27, label %37

27:                                               ; preds = %21
  %28 = load ptr, ptr %5, align 8, !tbaa !8
  store i32 7, ptr %28, align 4, !tbaa !36
  store i8 0, ptr %3, align 1
  br label %43

29:                                               ; preds = %19
  %30 = landingpad { ptr, i32 }
          cleanup
  %31 = extractvalue { ptr, i32 } %30, 0
  store ptr %31, ptr %8, align 8
  %32 = extractvalue { ptr, i32 } %30, 1
  store i32 %32, ptr %9, align 4
  %33 = load i1, ptr %7, align 1
  br i1 %33, label %34, label %36

34:                                               ; preds = %29
  %35 = load ptr, ptr %6, align 8
  call void @_ZN6icu_777UMemorydlEPv(ptr noundef %35) #12
  br label %36

36:                                               ; preds = %34, %29
  br label %45

37:                                               ; preds = %21
  %38 = getelementptr inbounds nuw %"class.icu_77::MessagePattern", ptr %10, i32 0, i32 4
  %39 = load ptr, ptr %38, align 8, !tbaa !22
  %40 = getelementptr inbounds nuw %"class.icu_77::MessagePatternList", ptr %39, i32 0, i32 0
  %41 = call noundef ptr @_ZNK6icu_7715MaybeStackArrayINS_14MessagePattern4PartELi32EE8getAliasEv(ptr noundef nonnull align 8 dereferenceable(528) %40)
  %42 = getelementptr inbounds nuw %"class.icu_77::MessagePattern", ptr %10, i32 0, i32 5
  store ptr %41, ptr %42, align 8, !tbaa !23
  store i8 1, ptr %3, align 1
  br label %43

43:                                               ; preds = %37, %27, %15
  %44 = load i8, ptr %3, align 1
  ret i8 %44

45:                                               ; preds = %36
  %46 = load ptr, ptr %8, align 8
  %47 = load i32, ptr %9, align 4
  %48 = insertvalue { ptr, i32 } poison, ptr %46, 0
  %49 = insertvalue { ptr, i32 } %48, i32 %47, 1
  resume { ptr, i32 } %49
}

; Function Attrs: inlinehint mustprogress uwtable
define linkonce_odr void @_ZN6icu_7713UnicodeStringC2Ev(ptr noundef nonnull align 8 dereferenceable(64) %0) unnamed_addr #2 comdat align 2 {
  %2 = alloca ptr, align 8
  store ptr %0, ptr %2, align 8, !tbaa !33
  %3 = load ptr, ptr %2, align 8
  call void @_ZN6icu_7711ReplaceableC2Ev(ptr noundef nonnull align 8 dereferenceable(8) %3)
  store ptr getelementptr inbounds inrange(-16, 88) ({ [13 x ptr] }, ptr @_ZTVN6icu_7713UnicodeStringE, i32 0, i32 0, i32 2), ptr %3, align 8, !tbaa !9
  %4 = getelementptr inbounds nuw %"class.icu_77::UnicodeString", ptr %3, i32 0, i32 1
  %5 = getelementptr inbounds nuw %struct.anon, ptr %4, i32 0, i32 0
  store i16 2, ptr %5, align 8, !tbaa !35
  ret void
}

; Function Attrs: inlinehint mustprogress nounwind uwtable
define linkonce_odr void @_ZN6icu_777UObjectC2Ev(ptr noundef nonnull align 8 dereferenceable(8) %0) unnamed_addr #1 comdat align 2 {
  %2 = alloca ptr, align 8
  store ptr %0, ptr %2, align 8, !tbaa !31
  %3 = load ptr, ptr %2, align 8
  store ptr getelementptr inbounds inrange(-16, 24) ({ [5 x ptr] }, ptr @_ZTVN6icu_777UObjectE, i32 0, i32 0, i32 2), ptr %3, align 8, !tbaa !9
  ret void
}

; Function Attrs: mustprogress uwtable
define void @_ZN6icu_7714MessagePatternC2ER10UErrorCode(ptr noundef nonnull align 8 dereferenceable(127) %0, ptr noundef nonnull align 4 dereferenceable(4) %1) unnamed_addr #0 align 2 personality ptr @__gxx_personality_v0 {
  %3 = alloca ptr, align 8
  %4 = alloca ptr, align 8
  %5 = alloca ptr, align 8
  %6 = alloca i32, align 4
  store ptr %0, ptr %3, align 8, !tbaa !3
  store ptr %1, ptr %4, align 8, !tbaa !8
  %7 = load ptr, ptr %3, align 8
  call void @_ZN6icu_777UObjectC2Ev(ptr noundef nonnull align 8 dereferenceable(8) %7) #12
  store ptr getelementptr inbounds inrange(-16, 24) ({ [5 x ptr] }, ptr @_ZTVN6icu_7714MessagePatternE, i32 0, i32 0, i32 2), ptr %7, align 8, !tbaa !9
  %8 = getelementptr inbounds nuw %"class.icu_77::MessagePattern", ptr %7, i32 0, i32 1
  store i32 0, ptr %8, align 8, !tbaa !11
  %9 = getelementptr inbounds nuw %"class.icu_77::MessagePattern", ptr %7, i32 0, i32 3
  invoke void @_ZN6icu_7713UnicodeStringC2Ev(ptr noundef nonnull align 8 dereferenceable(64) %9)
          to label %10 unwind label %23

10:                                               ; preds = %2
  %11 = getelementptr inbounds nuw %"class.icu_77::MessagePattern", ptr %7, i32 0, i32 4
  store ptr null, ptr %11, align 8, !tbaa !22
  %12 = getelementptr inbounds nuw %"class.icu_77::MessagePattern", ptr %7, i32 0, i32 5
  store ptr null, ptr %12, align 8, !tbaa !23
  %13 = getelementptr inbounds nuw %"class.icu_77::MessagePattern", ptr %7, i32 0, i32 6
  store i32 0, ptr %13, align 8, !tbaa !24
  %14 = getelementptr inbounds nuw %"class.icu_77::MessagePattern", ptr %7, i32 0, i32 8
  store ptr null, ptr %14, align 8, !tbaa !25
  %15 = getelementptr inbounds nuw %"class.icu_77::MessagePattern", ptr %7, i32 0, i32 9
  store ptr null, ptr %15, align 8, !tbaa !26
  %16 = getelementptr inbounds nuw %"class.icu_77::MessagePattern", ptr %7, i32 0, i32 10
  store i32 0, ptr %16, align 8, !tbaa !27
  %17 = getelementptr inbounds nuw %"class.icu_77::MessagePattern", ptr %7, i32 0, i32 11
  store i8 0, ptr %17, align 4, !tbaa !28
  %18 = getelementptr inbounds nuw %"class.icu_77::MessagePattern", ptr %7, i32 0, i32 12
  store i8 0, ptr %18, align 1, !tbaa !29
  %19 = getelementptr inbounds nuw %"class.icu_77::MessagePattern", ptr %7, i32 0, i32 13
  store i8 0, ptr %19, align 2, !tbaa !30
  %20 = load ptr, ptr %4, align 8, !tbaa !8
  %21 = invoke noundef signext i8 @_ZN6icu_7714MessagePattern4initER10UErrorCode(ptr noundef nonnull align 8 dereferenceable(127) %7, ptr noundef nonnull align 4 dereferenceable(4) %20)
          to label %22 unwind label %27

22:                                               ; preds = %10
  ret void

23:                                               ; preds = %2
  %24 = landingpad { ptr, i32 }
          cleanup
  %25 = extractvalue { ptr, i32 } %24, 0
  store ptr %25, ptr %5, align 8
  %26 = extractvalue { ptr, i32 } %24, 1
  store i32 %26, ptr %6, align 4
  br label %31

27:                                               ; preds = %10
  %28 = landingpad { ptr, i32 }
          cleanup
  %29 = extractvalue { ptr, i32 } %28, 0
  store ptr %29, ptr %5, align 8
  %30 = extractvalue { ptr, i32 } %28, 1
  store i32 %30, ptr %6, align 4
  call void @_ZN6icu_7713UnicodeStringD1Ev(ptr noundef nonnull align 8 dereferenceable(64) %9) #12
  br label %31

31:                                               ; preds = %27, %23
  call void @_ZN6icu_777UObjectD2Ev(ptr noundef nonnull align 8 dereferenceable(8) %7) #12
  br label %32

32:                                               ; preds = %31
  %33 = load ptr, ptr %5, align 8
  %34 = load i32, ptr %6, align 4
  %35 = insertvalue { ptr, i32 } poison, ptr %33, 0
  %36 = insertvalue { ptr, i32 } %35, i32 %34, 1
  resume { ptr, i32 } %36
}