; Function Attrs: mustprogress nounwind uwtable
define void @_ZN6icu_7714MessagePatternC2ER10UErrorCode(ptr noundef nonnull writeonly align 8 captures(none) dereferenceable(127) initializes((0, 12), (16, 26), (80, 100), (104, 127)) %0, ptr noundef nonnull align 4 captures(none) dereferenceable(4) %1) unnamed_addr #0 align 2 personality ptr @__gxx_personality_v0 {
  store ptr getelementptr inbounds nuw inrange(-16, 24) (i8, ptr @_ZTVN6icu_7714MessagePatternE, i64 16), ptr %0, align 8, !tbaa !3
  %3 = getelementptr inbounds nuw i8, ptr %0, i64 8
  store i32 0, ptr %3, align 8, !tbaa !6
  %4 = getelementptr inbounds nuw i8, ptr %0, i64 16
  store ptr getelementptr inbounds nuw inrange(-16, 88) (i8, ptr @_ZTVN6icu_7713UnicodeStringE, i64 16), ptr %4, align 8, !tbaa !3
  %5 = getelementptr inbounds nuw i8, ptr %0, i64 24
  store i16 2, ptr %5, align 8, !tbaa !19
  %6 = getelementptr inbounds nuw i8, ptr %0, i64 80
  %7 = getelementptr inbounds nuw i8, ptr %0, i64 88
  %8 = getelementptr inbounds nuw i8, ptr %0, i64 104
  tail call void @llvm.memset.p0.i64(ptr noundef nonnull align 8 dereferenceable(20) %6, i8 0, i64 20, i1 false)
  tail call void @llvm.memset.p0.i64(ptr noundef nonnull align 8 dereferenceable(23) %8, i8 0, i64 23, i1 false)
  %9 = load i32, ptr %1, align 4, !tbaa !20
  %10 = icmp slt i32 %9, 1
  br i1 %10, label %11, label %_ZN6icu_7714MessagePattern4initER10UErrorCode.exit

11:                                               ; preds = %2
  %12 = tail call noundef ptr @_ZN6icu_777UMemorynwEm(i64 noundef 528) #18
  %13 = icmp eq ptr %12, null
  br i1 %13, label %14, label %15

14:                                               ; preds = %11
  store ptr null, ptr %6, align 8, !tbaa !22
  store i32 7, ptr %1, align 4, !tbaa !20
  br label %_ZN6icu_7714MessagePattern4initER10UErrorCode.exit

15:                                               ; preds = %11
  %16 = getelementptr inbounds nuw i8, ptr %12, i64 8
  tail call void @llvm.memset.p0.i64(ptr noundef nonnull align 8 dereferenceable(520) %16, i8 0, i64 520, i1 false)
  %.ptr2.i.i.i.i = getelementptr inbounds nuw i8, ptr %12, i64 16
  store ptr %.ptr2.i.i.i.i, ptr %12, align 8, !tbaa !23
  store i32 32, ptr %16, align 8, !tbaa !25
  store ptr %12, ptr %6, align 8, !tbaa !22
  store ptr %.ptr2.i.i.i.i, ptr %7, align 8, !tbaa !26
  br label %_ZN6icu_7714MessagePattern4initER10UErrorCode.exit

_ZN6icu_7714MessagePattern4initER10UErrorCode.exit: ; preds = %15, %14, %2
  ret void
}